; ModuleID = '34/3283.c'
source_filename = "34/3283.c"
target datalayout = "e-m:e-p270:32:32-p271:32:32-p272:64:64-i64:64-f80:128-n8:16:32:64-S128"
target triple = "x86_64-pc-linux-gnu"

@.str = private unnamed_addr constant [3 x i8] c"%d\00", align 1
@.str.1 = private unnamed_addr constant [4 x i8] c"End\00", align 1
@.str.2 = private unnamed_addr constant [9 x i8] c"%d/2=%d\0A\00", align 1
@.str.3 = private unnamed_addr constant [11 x i8] c"%d*3+1=%d\0A\00", align 1

; Function Attrs: noinline nounwind uwtable
define dso_local void @main() #0 {
  %1 = alloca i32, align 4
  %2 = call i32 (i8*, ...) @__isoc99_scanf(i8* getelementptr inbounds ([3 x i8], [3 x i8]* @.str, i64 0, i64 0), i32* %1)
  %3 = load i32, i32* %1, align 4
  call void @suan(i32 %3)
  ret void
}

declare dso_local i32 @__isoc99_scanf(i8*, ...) #1

; Function Attrs: noinline nounwind uwtable
define dso_local void @suan(i32 %0) #0 {
  %2 = alloca i32, align 4
  %3 = alloca i32, align 4
  store i32 %0, i32* %2, align 4
  %4 = load i32, i32* %2, align 4
  %5 = icmp eq i32 %4, 1
  br i1 %5, label %6, label %8

6:                                                ; preds = %1
  %7 = call i32 (i8*, ...) @printf(i8* getelementptr inbounds ([4 x i8], [4 x i8]* @.str.1, i64 0, i64 0))
  br label %42

8:                                                ; preds = %1
  %9 = load i32, i32* %2, align 4
  %10 = srem i32 %9, 2
  %11 = icmp eq i32 %10, 0
  br i1 %11, label %12, label %28

12:                                               ; preds = %8
  %13 = load i32, i32* %2, align 4
  %14 = sdiv i32 %13, 2
  store i32 %14, i32* %3, align 4
  %15 = load i32, i32* %3, align 4
  %16 = icmp ne i32 %15, 1
  br i1 %16, label %17, label %22

17:                                               ; preds = %12
  %18 = load i32, i32* %2, align 4
  %19 = load i32, i32* %3, align 4
  %20 = call i32 (i8*, ...) @printf(i8* getelementptr inbounds ([9 x i8], [9 x i8]* @.str.2, i64 0, i64 0), i32 %18, i32 %19)
  %21 = load i32, i32* %3, align 4
  call void @suan(i32 %21)
  br label %27

22:                                               ; preds = %12
  %23 = load i32, i32* %2, align 4
  %24 = load i32, i32* %3, align 4
  %25 = call i32 (i8*, ...) @printf(i8* getelementptr inbounds ([9 x i8], [9 x i8]* @.str.2, i64 0, i64 0), i32 %23, i32 %24)
  %26 = call i32 (i8*, ...) @printf(i8* getelementptr inbounds ([4 x i8], [4 x i8]* @.str.1, i64 0, i64 0))
  br label %27

27:                                               ; preds = %22, %17
  br label %41

28:                                               ; preds = %8
  %29 = load i32, i32* %2, align 4
  %30 = srem i32 %29, 2
  %31 = icmp ne i32 %30, 0
  br i1 %31, label %32, label %40

32:                                               ; preds = %28
  %33 = load i32, i32* %2, align 4
  %34 = mul nsw i32 %33, 3
  %35 = add nsw i32 %34, 1
  store i32 %35, i32* %3, align 4
  %36 = load i32, i32* %2, align 4
  %37 = load i32, i32* %3, align 4
  %38 = call i32 (i8*, ...) @printf(i8* getelementptr inbounds ([11 x i8], [11 x i8]* @.str.3, i64 0, i64 0), i32 %36, i32 %37)
  %39 = load i32, i32* %3, align 4
  call void @suan(i32 %39)
  br label %40

40:                                               ; preds = %32, %28
  br label %41

41:                                               ; preds = %40, %27
  br label %42

42:                                               ; preds = %41, %6
  ret void
}

declare dso_local i32 @printf(i8*, ...) #1


!llvm.module.flags = !{!0}
!llvm.ident = !{!1}

!0 = !{i32 1, !"wchar_size", i32 4}
!1 = !{!"clang version 10.0.0-4ubuntu1 "}
